target datalayout = "e-m:e-p270:32:32-p271:32:32-p272:64:64-i64:64-i128:128-f80:128-n8:16:32:64-S128"
target triple = "x86_64-unknown-linux-gnu"

@.str.3 = private unnamed_addr constant [6 x i8] c"Names\00", align 1
@.str.4 = private unnamed_addr constant [11 x i8] c"zoneinfo64\00", align 1
@.str.5 = private unnamed_addr constant [6 x i8] c"Zones\00", align 1

; Function Attrs: mustprogress nounwind uwtable
define internal noundef signext i8 @_ZL9U_FAILURE10UErrorCode(i32 noundef %code) #2 {
entry:
  %code.addr = alloca i32, align 4
  store i32 %code, ptr %code.addr, align 4
  %0 = load i32, ptr %code.addr, align 4
  %cmp = icmp sgt i32 %0, 0
  %conv = zext i1 %cmp to i8
  ret i8 %conv
}

; Function Attrs: mustprogress nounwind uwtable
define internal noundef signext i8 @_ZL9U_SUCCESS10UErrorCode(i32 noundef %code) #2 {
entry:
  %code.addr = alloca i32, align 4
  store i32 %code, ptr %code.addr, align 4
  %0 = load i32, ptr %code.addr, align 4
  %cmp = icmp sle i32 %0, 0
  %conv = zext i1 %cmp to i8
  ret i8 %conv
}

; Function Attrs: mustprogress uwtable
define internal noundef ptr @_ZN6icu_75L13getZoneByNameEPK15UResourceBundleRKNS_13UnicodeStringEPS0_R10UErrorCode(ptr noundef %top, ptr noundef nonnull align 8 dereferenceable(64) %id, ptr noundef %oldbundle, ptr noundef nonnull align 4 dereferenceable(4) %status) #0 {
entry:
  %retval = alloca ptr, align 8
  %top.addr = alloca ptr, align 8
  %id.addr = alloca ptr, align 8
  %oldbundle.addr = alloca ptr, align 8
  %status.addr = alloca ptr, align 8
  %tmp = alloca ptr, align 8
  %idx = alloca i32, align 4
  store ptr %top, ptr %top.addr, align 8
  store ptr %id, ptr %id.addr, align 8
  store ptr %oldbundle, ptr %oldbundle.addr, align 8
  store ptr %status, ptr %status.addr, align 8
  %0 = load ptr, ptr %top.addr, align 8
  %1 = load ptr, ptr %status.addr, align 8
  %call = call ptr @ures_getByKey_75(ptr noundef %0, ptr noundef @.str.3, ptr noundef null, ptr noundef %1)
  store ptr %call, ptr %tmp, align 8
  %2 = load ptr, ptr %tmp, align 8
  %3 = load ptr, ptr %id.addr, align 8
  %4 = load ptr, ptr %status.addr, align 8
  %call1 = call noundef i32 @_ZN6icu_75L17findInStringArrayEP15UResourceBundleRKNS_13UnicodeStringER10UErrorCode(ptr noundef %2, ptr noundef nonnull align 8 dereferenceable(64) %3, ptr noundef nonnull align 4 dereferenceable(4) %4)
  store i32 %call1, ptr %idx, align 4
  %5 = load i32, ptr %idx, align 4
  %cmp = icmp eq i32 %5, -1
  br i1 %cmp, label %land.lhs.true, label %if.else

land.lhs.true:                                    ; preds = %entry
  %6 = load ptr, ptr %status.addr, align 8
  %7 = load i32, ptr %6, align 4
  %call2 = call noundef signext i8 @_ZL9U_SUCCESS10UErrorCode(i32 noundef %7)
  %tobool = icmp ne i8 %call2, 0
  br i1 %tobool, label %if.then, label %if.else

if.then:                                          ; preds = %land.lhs.true
  %8 = load ptr, ptr %status.addr, align 8
  store i32 2, ptr %8, align 4
  br label %if.end

if.else:                                          ; preds = %land.lhs.true, %entry
  %9 = load ptr, ptr %top.addr, align 8
  %10 = load ptr, ptr %tmp, align 8
  %11 = load ptr, ptr %status.addr, align 8
  %call3 = call ptr @ures_getByKey_75(ptr noundef %9, ptr noundef @.str.5, ptr noundef %10, ptr noundef %11)
  store ptr %call3, ptr %tmp, align 8
  %12 = load ptr, ptr %tmp, align 8
  %13 = load i32, ptr %idx, align 4
  %14 = load ptr, ptr %oldbundle.addr, align 8
  %15 = load ptr, ptr %status.addr, align 8
  %call4 = call ptr @ures_getByIndex_75(ptr noundef %12, i32 noundef %13, ptr noundef %14, ptr noundef %15)
  store ptr %call4, ptr %oldbundle.addr, align 8
  br label %if.end

if.end:                                           ; preds = %if.else, %if.then
  %16 = load ptr, ptr %tmp, align 8
  call void @ures_close_75(ptr noundef %16)
  %17 = load ptr, ptr %status.addr, align 8
  %18 = load i32, ptr %17, align 4
  %call5 = call noundef signext i8 @_ZL9U_FAILURE10UErrorCode(i32 noundef %18)
  %tobool6 = icmp ne i8 %call5, 0
  br i1 %tobool6, label %if.then7, label %if.else8

if.then7:                                         ; preds = %if.end
  store ptr null, ptr %retval, align 8
  br label %return

if.else8:                                         ; preds = %if.end
  %19 = load ptr, ptr %oldbundle.addr, align 8
  store ptr %19, ptr %retval, align 8
  br label %return

return:                                           ; preds = %if.else8, %if.then7
  %20 = load ptr, ptr %retval, align 8
  ret ptr %20
}

; Function Attrs: mustprogress uwtable
define internal noundef ptr @_ZN6icu_75L17openOlsonResourceERKNS_13UnicodeStringER15UResourceBundleR10UErrorCode(ptr noundef nonnull align 8 dereferenceable(64) %id, ptr noundef nonnull align 8 dereferenceable(136) %res, ptr noundef nonnull align 4 dereferenceable(4) %ec) #0 {
entry:
  %id.addr = alloca ptr, align 8
  %res.addr = alloca ptr, align 8
  %ec.addr = alloca ptr, align 8
  %top = alloca ptr, align 8
  %deref = alloca i32, align 4
  %ares = alloca ptr, align 8
  store ptr %id, ptr %id.addr, align 8
  store ptr %res, ptr %res.addr, align 8
  store ptr %ec, ptr %ec.addr, align 8
  %0 = load ptr, ptr %ec.addr, align 8
  %call = call ptr @ures_openDirect_75(ptr noundef null, ptr noundef @.str.4, ptr noundef %0)
  store ptr %call, ptr %top, align 8
  %1 = load ptr, ptr %top, align 8
  %2 = load ptr, ptr %id.addr, align 8
  %3 = load ptr, ptr %res.addr, align 8
  %4 = load ptr, ptr %ec.addr, align 8
  %call1 = call noundef ptr @_ZN6icu_75L13getZoneByNameEPK15UResourceBundleRKNS_13UnicodeStringEPS0_R10UErrorCode(ptr noundef %1, ptr noundef nonnull align 8 dereferenceable(64) %2, ptr noundef %3, ptr noundef nonnull align 4 dereferenceable(4) %4)
  %5 = load ptr, ptr %res.addr, align 8
  %call2 = call i32 @ures_getType_75(ptr noundef %5)
  %cmp = icmp eq i32 %call2, 7
  br i1 %cmp, label %if.then, label %if.else

if.then:                                          ; preds = %entry
  %6 = load ptr, ptr %res.addr, align 8
  %7 = load ptr, ptr %ec.addr, align 8
  %call3 = call i32 @ures_getInt_75(ptr noundef %6, ptr noundef %7)
  %add = add nsw i32 %call3, 0
  store i32 %add, ptr %deref, align 4
  %8 = load ptr, ptr %top, align 8
  %9 = load ptr, ptr %ec.addr, align 8
  %call4 = call ptr @ures_getByKey_75(ptr noundef %8, ptr noundef @.str.5, ptr noundef null, ptr noundef %9)
  store ptr %call4, ptr %ares, align 8
  %10 = load ptr, ptr %ares, align 8
  %11 = load i32, ptr %deref, align 4
  %12 = load ptr, ptr %res.addr, align 8
  %13 = load ptr, ptr %ec.addr, align 8
  %call5 = call ptr @ures_getByIndex_75(ptr noundef %10, i32 noundef %11, ptr noundef %12, ptr noundef %13)
  %14 = load ptr, ptr %ares, align 8
  call void @ures_close_75(ptr noundef %14)
  br label %if.end

if.else:                                          ; preds = %entry
  br label %if.end

if.end:                                           ; preds = %if.else, %if.then
  %15 = load ptr, ptr %top, align 8
  ret ptr %15
}