; Function Attrs: mustprogress uwtable
define internal fastcc noundef ptr @_ZN6icu_75L17openOlsonResourceERKNS_13UnicodeStringER15UResourceBundleR10UErrorCode(ptr noundef nonnull align 8 dereferenceable(64) %id, ptr noundef nonnull align 8 dereferenceable(136) %res, ptr noundef nonnull align 4 dereferenceable(4) %ec) unnamed_addr #0 {
entry:
  %call = tail call ptr @ures_openDirect_75(ptr noundef null, ptr noundef nonnull @.str.4, ptr noundef nonnull %ec)
  %call.i = tail call ptr @ures_getByKey_75(ptr noundef %call, ptr noundef nonnull @.str.3, ptr noundef null, ptr noundef nonnull %ec)
  %call1.i = tail call fastcc noundef i32 @_ZN6icu_75L17findInStringArrayEP15UResourceBundleRKNS_13UnicodeStringER10UErrorCode(ptr noundef %call.i, ptr noundef nonnull align 8 dereferenceable(64) %id, ptr noundef nonnull align 4 dereferenceable(4) %ec), !range !12
  %cmp.i = icmp ne i32 %call1.i, -1
  %0 = load i32, ptr %ec, align 4
  %cmp.i.i = icmp sgt i32 %0, 0
  %or.cond.i = select i1 %cmp.i, i1 true, i1 %cmp.i.i
  br i1 %or.cond.i, label %if.else.i, label %if.then.i

if.then.i:                                        ; preds = %entry
  store i32 2, ptr %ec, align 4
  br label %_ZN6icu_75L13getZoneByNameEPK15UResourceBundleRKNS_13UnicodeStringEPS0_R10UErrorCode.exit

if.else.i:                                        ; preds = %entry
  %call3.i = tail call ptr @ures_getByKey_75(ptr noundef %call, ptr noundef nonnull @.str.5, ptr noundef %call.i, ptr noundef nonnull %ec)
  %call4.i = tail call ptr @ures_getByIndex_75(ptr noundef %call3.i, i32 noundef %call1.i, ptr noundef nonnull %res, ptr noundef nonnull %ec)
  br label %_ZN6icu_75L13getZoneByNameEPK15UResourceBundleRKNS_13UnicodeStringEPS0_R10UErrorCode.exit

_ZN6icu_75L13getZoneByNameEPK15UResourceBundleRKNS_13UnicodeStringEPS0_R10UErrorCode.exit: ; preds = %if.then.i, %if.else.i
  %tmp.0.i = phi ptr [ %call.i, %if.then.i ], [ %call3.i, %if.else.i ]
  tail call void @ures_close_75(ptr noundef %tmp.0.i)
  %call2 = tail call i32 @ures_getType_75(ptr noundef nonnull %res)
  %cmp = icmp eq i32 %call2, 7
  br i1 %cmp, label %if.then, label %if.end

if.then:                                          ; preds = %_ZN6icu_75L13getZoneByNameEPK15UResourceBundleRKNS_13UnicodeStringEPS0_R10UErrorCode.exit
  %call3 = tail call i32 @ures_getInt_75(ptr noundef nonnull %res, ptr noundef nonnull %ec)
  %call4 = tail call ptr @ures_getByKey_75(ptr noundef %call, ptr noundef nonnull @.str.5, ptr noundef null, ptr noundef nonnull %ec)
  %call5 = tail call ptr @ures_getByIndex_75(ptr noundef %call4, i32 noundef %call3, ptr noundef nonnull %res, ptr noundef nonnull %ec)
  tail call void @ures_close_75(ptr noundef %call4)
  br label %if.end

if.end:                                           ; preds = %_ZN6icu_75L13getZoneByNameEPK15UResourceBundleRKNS_13UnicodeStringEPS0_R10UErrorCode.exit, %if.then
  ret ptr %call
}